; Function Attrs: mustprogress uwtable
define void @_ZNK3gmx17HelpWriterContext31substituteMarkupAndWrapToStringERKNS_23TextLineWrapperSettingsERKNSt7__cxx1112basic_stringIcSt11char_traitsIcESaIcEEE(ptr dead_on_unwind noalias writable sret(%"class.std::__cxx11::basic_string") align 8 %0, ptr nocapture noundef nonnull readonly align 8 dereferenceable(8) %1, ptr nocapture noundef nonnull readonly align 4 dereferenceable(14) %2, ptr noundef nonnull align 8 dereferenceable(32) %3) local_unnamed_addr #0 align 2 personality ptr @__gxx_personality_v0 {
  %5 = alloca %"class.gmx::(anonymous namespace)::WrapperToString", align 8
  store ptr getelementptr inbounds inrange(-16, 32) ({ [6 x ptr] }, ptr @_ZTVN3gmx12_GLOBAL__N_115WrapperToStringE, i64 0, i32 0, i64 2), ptr %5, align 8
  %6 = getelementptr inbounds i8, ptr %5, i64 8
  call void @llvm.memcpy.p0.p0.i64(ptr noundef nonnull align 8 dereferenceable(16) %6, ptr noundef nonnull align 4 dereferenceable(16) %2, i64 16, i1 false)
  %7 = getelementptr inbounds i8, ptr %5, i64 24
  call void @_ZNSt7__cxx1112basic_stringIcSt11char_traitsIcESaIcEEC1Ev(ptr noundef nonnull align 8 dereferenceable(32) %7) #17
  %8 = load ptr, ptr %1, align 8
  invoke fastcc void @_ZNK3gmx17HelpWriterContext4Impl13processMarkupERKNSt7__cxx1112basic_stringIcSt11char_traitsIcESaIcEEEPNS_12_GLOBAL__N_18IWrapperE(ptr noundef nonnull align 8 dereferenceable(44) %8, ptr noundef nonnull align 8 dereferenceable(32) %3, ptr noundef nonnull %5)
          to label %9 unwind label %11

9:                                                ; preds = %4
  invoke void @_ZNSt7__cxx1112basic_stringIcSt11char_traitsIcESaIcEEC1ERKS4_(ptr noundef nonnull align 8 dereferenceable(32) %0, ptr noundef nonnull align 8 dereferenceable(32) %7)
          to label %10 unwind label %11

10:                                               ; preds = %9
  store ptr getelementptr inbounds inrange(-16, 32) ({ [6 x ptr] }, ptr @_ZTVN3gmx12_GLOBAL__N_115WrapperToStringE, i64 0, i32 0, i64 2), ptr %5, align 8
  call void @_ZNSt7__cxx1112basic_stringIcSt11char_traitsIcESaIcEED1Ev(ptr noundef nonnull align 8 dereferenceable(32) %7) #17
  ret void

11:                                               ; preds = %9, %4
  %12 = landingpad { ptr, i32 }
          cleanup
  store ptr getelementptr inbounds inrange(-16, 32) ({ [6 x ptr] }, ptr @_ZTVN3gmx12_GLOBAL__N_115WrapperToStringE, i64 0, i32 0, i64 2), ptr %5, align 8
  call void @_ZNSt7__cxx1112basic_stringIcSt11char_traitsIcESaIcEED1Ev(ptr noundef nonnull align 8 dereferenceable(32) %7) #17
  resume { ptr, i32 } %12
}